Certificate:
    Data:
        Version: 1 (0x0)
        Serial Number: 4097 (0x1001)
    Signature Algorithm: md5WithRSAEncryption
        Issuer: C=ru, ST=MO, L=Moscow, O=Sbt, OU=Team, CN=team.test.org/emailAddress=team@ya.org
        Validity
            Not Before: Dec  6 16:44:17 2022 GMT
            Not After : Dec  6 16:44:17 2023 GMT
        Subject: C=ru, ST=MO, L=Moscow, O=Sbt, OU=DB, CN=db.test.org/emailAddress=db@ya.org
        Subject Public Key Info:
            Public Key Algorithm: rsaEncryption
                RSA Public-Key: (2048 bit)
                Modulus:
                    00:d5:d7:46:d7:12:fe:b8:6d:26:fc:76:02:92:93:
                    b8:2f:10:a9:92:19:0b:14:11:21:9f:c2:1c:c6:3f:
                    9e:27:25:9a:b7:7d:a1:6e:c9:1f:35:e1:11:26:61:
                    fd:b5:f2:df:1a:74:3e:ae:f2:db:66:79:e1:d3:6d:
                    dd:97:ff:e1:99:40:0e:73:37:be:1d:ac:06:84:59:
                    fc:38:eb:85:0b:5c:19:a5:e7:d2:3c:cd:92:bd:55:
                    46:04:79:15:c7:3b:a3:40:4c:ca:7d:ca:43:38:af:
                    34:4a:59:60:9d:20:9a:df:85:32:6c:9f:0a:5b:a2:
                    8a:98:9f:5b:af:02:84:68:a1:a0:6b:75:d5:b0:c1:
                    54:65:5f:51:a8:e7:4e:0f:7c:01:a8:c4:53:49:8c:
                    b3:c0:03:a9:74:ce:ea:f5:39:1d:54:68:8a:d0:a8:
                    b0:8e:78:61:c1:e8:93:3c:ac:42:00:7f:25:78:2b:
                    23:9b:f6:b7:3c:5a:1a:63:30:dc:06:c5:1f:25:1c:
                    78:0a:5a:2d:e9:e1:6d:3d:63:c8:3e:a8:c1:3f:e6:
                    51:18:90:52:83:40:15:02:13:9b:6b:53:fb:ac:ef:
                    a8:8c:56:63:d5:28:10:53:ba:49:57:b2:6d:dc:b4:
                    4e:39:d7:18:dc:17:41:7e:2b:17:90:63:e7:84:0e:
                    24:75
                Exponent: 65537 (0x10001)
    Signature Algorithm: md5WithRSAEncryption
         23:b2:15:95:33:4b:be:a9:95:f0:be:a7:21:87:68:eb:da:31:
         b4:12:b6:b0:02:47:f3:8f:1e:95:3d:ec:f1:81:cf:39:f4:89:
         87:df:a7:68:c3:9b:c1:6d:30:3d:b0:8c:19:1b:5f:a3:cf:03:
         c0:1e:fd:b8:64:a7:d7:8b:52:d3:2e:bd:8b:29:12:6a:81:a0:
         f4:96:ae:ab:c2:df:48:48:7c:fe:1e:08:e2:7d:f7:8b:45:52:
         44:6f:60:63:ee:34:e4:22:18:2a:c0:87:bd:9f:db:aa:1a:05:
         34:72:d3:54:98:40:f1:5e:81:fb:d7:f4:ec:5a:8f:be:d7:f4:
         ee:5b:06:96:f2:be:2c:42:fc:8f:4d:2f:1c:00:2c:39:34:20:
         8d:f6:f4:8a:be:42:9a:64:46:c3:fb:36:00:24:55:bc:15:4e:
         ca:9b:2a:06:0b:9a:62:f5:71:7c:6a:c2:59:2a:2c:1c:d6:ca:
         ec:e6:2b:18:9a:c6:8d:e0:b7:a5:ad:99:44:29:1f:65:ba:75:
         f6:ef:25:e0:c1:a8:7a:72:ca:9b:02:4c:de:0b:e9:69:bd:18:
         ac:ee:bd:ef:1d:bb:a0:01:37:51:46:8c:7c:b2:2c:25:ee:29:
         b6:90:92:98:54:f0:ab:59:41:62:4f:50:9d:30:ee:8e:9b:e6:
         8b:09:5f:95:89:f7:f2:4e:ee:3e:c4:7b:c6:9f:46:c2:81:f3:
         5a:eb:94:7f:80:5c:4d:b8:1e:7b:56:f2:3b:40:dd:75:b9:4d:
         19:c2:ef:11:d5:6f:a3:1d:47:c9:63:17:31:aa:0d:47:d0:45:
         34:cb:28:88:90:6e:fe:e4:78:b5:e8:98:04:0c:34:4e:81:53:
         29:f6:e7:ed:88:4a:0d:3d:c7:3b:37:1e:c5:37:be:25:51:27:
         f1:0b:f6:f0:14:48:de:c2:a2:e0:ae:5d:e9:e2:86:52:45:2d:
         45:56:eb:8d:de:b9:a6:ac:de:56:be:10:0f:39:8f:ea:44:a8:
         12:89:1d:d0:1d:11:93:42:30:05:a2:8a:5f:47:80:9f:5c:3a:
         83:15:a1:2e:f6:3a:bc:9e:42:81:17:47:11:d2:ba:17:f8:d6:
         72:09:c9:a1:02:19:32:7a:5d:19:72:8d:7f:ec:52:8f:a2:8e:
         e5:19:93:c8:88:aa:89:c8:e5:00:ba:cd:fc:6b:c3:41:49:6f:
         35:e5:26:96:02:1a:ae:2c:e6:b9:d6:9a:37:79:61:29:fd:d8:
         42:a4:40:7b:87:10:57:8e:56:90:7a:48:76:40:1b:20:c3:a2:
         2d:43:51:84:74:f2:d8:37:49:1e:9b:fc:f9:51:0a:2e:bc:d9:
         81:ec:4d:47:ef:b0:af:5e
-----BEGIN CERTIFICATE-----
MIIEZzCCAk8CAhABMA0GCSqGSIb3DQEBBAUAMHwxCzAJBgNVBAYTAnJ1MQswCQYD
VQQIDAJNTzEPMA0GA1UEBwwGTW9zY293MQwwCgYDVQQKDANTYnQxDTALBgNVBAsM
BFRlYW0xFjAUBgNVBAMMDXRlYW0udGVzdC5vcmcxGjAYBgkqhkiG9w0BCQEWC3Rl
YW1AeWEub3JnMB4XDTIyMTIwNjE2NDQxN1oXDTIzMTIwNjE2NDQxN1owdjELMAkG
A1UEBhMCcnUxCzAJBgNVBAgMAk1PMQ8wDQYDVQQHDAZNb3Njb3cxDDAKBgNVBAoM
A1NidDELMAkGA1UECwwCREIxFDASBgNVBAMMC2RiLnRlc3Qub3JnMRgwFgYJKoZI
hvcNAQkBFglkYkB5YS5vcmcwggEiMA0GCSqGSIb3DQEBAQUAA4IBDwAwggEKAoIB
AQDV10bXEv64bSb8dgKSk7gvEKmSGQsUESGfwhzGP54nJZq3faFuyR814REmYf21
8t8adD6u8ttmeeHTbd2X/+GZQA5zN74drAaEWfw464ULXBml59I8zZK9VUYEeRXH
O6NATMp9ykM4rzRKWWCdIJrfhTJsnwpbooqYn1uvAoRooaBrddWwwVRlX1Go504P
fAGoxFNJjLPAA6l0zur1OR1UaIrQqLCOeGHB6JM8rEIAfyV4KyOb9rc8WhpjMNwG
xR8lHHgKWi3p4W09Y8g+qME/5lEYkFKDQBUCE5trU/us76iMVmPVKBBTuklXsm3c
tE451xjcF0F+KxeQY+eEDiR1AgMBAAEwDQYJKoZIhvcNAQEEBQADggIBACOyFZUz
S76plfC+pyGHaOvaMbQStrACR/OPHpU97PGBzzn0iYffp2jDm8FtMD2wjBkbX6PP
A8Ae/bhkp9eLUtMuvYspEmqBoPSWrqvC30hIfP4eCOJ994tFUkRvYGPuNOQiGCrA
h72f26oaBTRy01SYQPFegfvX9Oxaj77X9O5bBpbyvixC/I9NLxwALDk0II329Iq+
QppkRsP7NgAkVbwVTsqbKgYLmmL1cXxqwlkqLBzWyuzmKxiaxo3gt6WtmUQpH2W6
dfbvJeDBqHpyypsCTN4L6Wm9GKzuve8du6ABN1FGjHyyLCXuKbaQkphU8KtZQWJP
UJ0w7o6b5osJX5WJ9/JO7j7Ee8afRsKB81rrlH+AXE24HntW8jtA3XW5TRnC7xHV
b6MdR8ljFzGqDUfQRTTLKIiQbv7keLXomAQMNE6BUyn25+2ISg09xzs3HsU3viVR
J/EL9vAUSN7CouCuXenihlJFLUVW643euaas3la+EA85j+pEqBKJHdAdEZNCMAWi
il9HgJ9cOoMVoS72OryeQoEXRxHSuhf41nIJyaECGTJ6XRlyjX/sUo+ijuUZk8iI
qonI5QC6zfxrw0FJbzXlJpYCGq4s5rnWmjd5YSn92EKkQHuHEFeOVpB6SHZAGyDD
oi1DUYR08tg3SR6b/PlRCi682YHsTUfvsK9e
-----END CERTIFICATE-----
