Certificate:
    Data:
        Version: 1 (0x0)
        Serial Number: 4096 (0x1000)
    Signature Algorithm: md5WithRSAEncryption
        Issuer: C=ru, ST=MO, L=Moscow, O=Sbt, OU=Team, CN=team.test.org/emailAddress=team@ya.org
        Validity
            Not Before: Dec  6 16:44:16 2022 GMT
            Not After : Dec  6 16:44:16 2023 GMT
        Subject: C=ru, ST=MO, L=Moscow, O=Sbt, OU=MQ, CN=mq.test.org/emailAddress=mq@ya.org
        Subject Public Key Info:
            Public Key Algorithm: rsaEncryption
                RSA Public-Key: (2048 bit)
                Modulus:
                    00:bc:23:37:74:38:fb:b0:ce:41:40:a1:47:1d:e2:
                    d9:8a:66:82:b6:75:86:b5:2c:58:09:99:44:33:f9:
                    ce:0d:0d:96:41:da:a5:fe:82:18:8f:6b:c9:65:80:
                    f6:00:f0:c5:d7:3b:e7:b8:f5:8d:71:ae:86:d5:6f:
                    66:80:df:aa:73:c4:7b:dc:b9:52:7c:be:f7:c4:37:
                    d3:c1:b7:f2:37:3b:37:9d:c8:b3:83:94:c8:13:82:
                    fe:09:9d:de:c0:e5:62:68:e2:b6:5a:54:cd:72:3e:
                    fb:53:e5:b9:8e:95:2d:80:12:1f:3c:67:6e:26:e5:
                    2c:fc:19:30:6e:cd:65:c4:09:c5:58:86:5c:b0:0f:
                    13:07:85:5e:bd:1c:78:73:d0:41:d1:b8:d8:c4:79:
                    f1:43:19:fd:e7:19:1e:2e:72:3e:59:ef:bd:68:ec:
                    7b:48:4c:97:6e:7e:d2:e1:ee:59:32:98:38:b1:f3:
                    81:00:69:fa:d9:19:0a:08:ac:4a:c3:3c:74:d8:25:
                    2f:16:87:c6:8f:fa:50:76:2e:2b:f9:35:e9:21:2c:
                    e2:bb:74:cc:04:d9:16:c6:67:fe:15:ab:90:67:3b:
                    f3:67:2f:ea:21:cf:29:b0:83:20:e3:b8:48:e2:d7:
                    9a:de:e7:e7:64:26:f3:21:2d:5a:a6:2e:ad:97:ad:
                    d1:bd
                Exponent: 65537 (0x10001)
    Signature Algorithm: md5WithRSAEncryption
         3d:ca:c0:74:72:b0:b7:1c:87:fd:68:00:50:24:81:af:54:8c:
         c9:a7:75:4c:33:5b:e3:0b:70:4c:25:63:a0:bc:e7:06:14:bb:
         14:42:26:a3:93:9d:03:46:91:a1:5b:d2:56:71:1c:ac:2f:91:
         0e:87:d7:53:b8:cb:6c:91:f5:42:16:8a:47:3a:3e:b2:56:ef:
         04:d2:62:b3:cb:73:38:71:53:b9:3a:8b:7d:23:ea:54:3c:e1:
         6f:9e:74:b5:15:1d:59:8c:7a:4b:4a:8a:30:53:4b:9d:e9:39:
         d5:5e:60:5f:46:12:26:23:da:36:8a:2d:70:92:31:aa:a0:73:
         76:9a:d4:3c:6e:1c:c1:ac:1d:85:2a:8c:9f:a9:7d:ca:0f:de:
         53:15:e0:62:69:03:e9:57:25:6f:e3:a1:a8:e0:2c:af:b4:f8:
         ee:a5:61:22:5d:aa:c8:57:f7:24:7f:53:fb:4f:12:c2:41:ad:
         90:d3:91:67:e9:9b:d4:cd:31:b2:f6:71:b7:90:4a:3c:00:8b:
         bd:d9:c9:89:97:cf:05:75:e0:36:ae:1d:93:6a:49:e0:fa:b2:
         d4:da:64:e4:9e:68:53:a7:a0:6d:8d:74:c8:a3:d1:18:53:f9:
         76:b4:37:92:67:63:3c:c0:e8:80:ce:26:6e:67:02:64:5f:0a:
         45:0d:e9:44:b8:4e:dd:bb:da:17:6b:0e:5c:54:23:e3:04:72:
         73:03:8c:f9:66:5c:ad:4e:3d:2d:61:a6:0d:f9:cc:df:e4:e9:
         d1:7a:45:0c:88:62:3c:30:e0:13:4c:a3:1a:d2:c9:b7:3d:e2:
         a5:cc:7b:f8:6b:7c:42:e6:55:ea:2a:44:7d:9b:ff:d4:b6:33:
         32:39:bc:0b:b1:d5:1a:37:e9:7d:bb:66:f6:13:64:a7:52:bf:
         3b:af:98:42:70:96:57:9e:34:54:c6:4f:93:a9:43:cd:9d:44:
         eb:c5:8c:c7:a8:87:0d:67:11:aa:cf:66:de:39:c4:c9:06:9b:
         a6:99:45:32:be:60:f3:5d:04:b4:8d:7c:51:c0:0f:68:c2:95:
         75:92:70:f2:1b:c5:da:19:ef:b1:48:92:1a:10:24:ee:90:d9:
         dd:ea:8e:1b:30:fc:b8:e8:e3:e5:06:c2:6d:37:29:16:ab:d5:
         3f:61:07:9c:4a:73:51:f4:13:2d:31:d3:b6:e7:14:da:a8:ad:
         30:57:f6:39:0e:38:91:4c:cc:be:e0:c4:1d:91:3b:ca:35:52:
         f1:25:a5:71:99:51:06:16:87:af:1f:26:95:b3:a6:80:a9:7f:
         cd:72:39:30:26:72:1f:b5:b0:54:d9:4a:d6:fe:04:37:cc:60:
         50:13:5f:ba:08:a6:27:95
-----BEGIN CERTIFICATE-----
MIIEZzCCAk8CAhAAMA0GCSqGSIb3DQEBBAUAMHwxCzAJBgNVBAYTAnJ1MQswCQYD
VQQIDAJNTzEPMA0GA1UEBwwGTW9zY293MQwwCgYDVQQKDANTYnQxDTALBgNVBAsM
BFRlYW0xFjAUBgNVBAMMDXRlYW0udGVzdC5vcmcxGjAYBgkqhkiG9w0BCQEWC3Rl
YW1AeWEub3JnMB4XDTIyMTIwNjE2NDQxNloXDTIzMTIwNjE2NDQxNlowdjELMAkG
A1UEBhMCcnUxCzAJBgNVBAgMAk1PMQ8wDQYDVQQHDAZNb3Njb3cxDDAKBgNVBAoM
A1NidDELMAkGA1UECwwCTVExFDASBgNVBAMMC21xLnRlc3Qub3JnMRgwFgYJKoZI
hvcNAQkBFgltcUB5YS5vcmcwggEiMA0GCSqGSIb3DQEBAQUAA4IBDwAwggEKAoIB
AQC8Izd0OPuwzkFAoUcd4tmKZoK2dYa1LFgJmUQz+c4NDZZB2qX+ghiPa8llgPYA
8MXXO+e49Y1xrobVb2aA36pzxHvcuVJ8vvfEN9PBt/I3OzedyLODlMgTgv4Jnd7A
5WJo4rZaVM1yPvtT5bmOlS2AEh88Z24m5Sz8GTBuzWXECcVYhlywDxMHhV69HHhz
0EHRuNjEefFDGf3nGR4ucj5Z771o7HtITJduftLh7lkymDix84EAafrZGQoIrErD
PHTYJS8Wh8aP+lB2Liv5NekhLOK7dMwE2RbGZ/4Vq5BnO/NnL+ohzymwgyDjuEji
15re5+dkJvMhLVqmLq2XrdG9AgMBAAEwDQYJKoZIhvcNAQEEBQADggIBAD3KwHRy
sLcch/1oAFAkga9UjMmndUwzW+MLcEwlY6C85wYUuxRCJqOTnQNGkaFb0lZxHKwv
kQ6H11O4y2yR9UIWikc6PrJW7wTSYrPLczhxU7k6i30j6lQ84W+edLUVHVmMektK
ijBTS53pOdVeYF9GEiYj2jaKLXCSMaqgc3aa1DxuHMGsHYUqjJ+pfcoP3lMV4GJp
A+lXJW/joajgLK+0+O6lYSJdqshX9yR/U/tPEsJBrZDTkWfpm9TNMbL2cbeQSjwA
i73ZyYmXzwV14DauHZNqSeD6stTaZOSeaFOnoG2NdMij0RhT+Xa0N5JnYzzA6IDO
Jm5nAmRfCkUN6US4Tt272hdrDlxUI+MEcnMDjPlmXK1OPS1hpg35zN/k6dF6RQyI
Yjww4BNMoxrSybc94qXMe/hrfELmVeoqRH2b/9S2MzI5vAux1Ro36X27ZvYTZKdS
vzuvmEJwlleeNFTGT5OpQ82dROvFjMeohw1nEarPZt45xMkGm6aZRTK+YPNdBLSN
fFHAD2jClXWScPIbxdoZ77FIkhoQJO6Q2d3qjhsw/Ljo4+UGwm03KRar1T9hB5xK
c1H0Ey0x07bnFNqorTBX9jkOOJFMzL7gxB2RO8o1UvElpXGZUQYWh68fJpWzpoCp
f81yOTAmch+1sFTZStb+BDfMYFATX7oIpieV
-----END CERTIFICATE-----
